target datalayout = "e-m:e-p270:32:32-p271:32:32-p272:64:64-i64:64-i128:128-f80:128-n8:16:32:64-S128"
target triple = "x86_64-pc-linux-gnu"

%struct.Param = type { %struct.Expr, i32, i32, i32, i32, i32, i32 }
%struct.Expr = type { i32 }
%struct.PlannerInfo = type { i32, ptr, ptr, i32, ptr, ptr, ptr, ptr, i32, ptr, ptr, ptr, ptr, ptr, ptr, ptr, ptr, i32, ptr, ptr, ptr, ptr, ptr, i8, ptr, ptr, ptr, ptr, ptr, i32, ptr, ptr, ptr, ptr, ptr, ptr, ptr, i32, ptr, ptr, ptr, i32, ptr, ptr, ptr, ptr, ptr, ptr, [8 x ptr], [8 x ptr], ptr, ptr, ptr, ptr, ptr, ptr, ptr, double, double, double, i32, i8, i8, i8, i8, i8, i8, i8, i32, ptr, ptr, i32, i8, i8, i32, ptr, ptr, ptr, ptr, ptr, ptr, i8, ptr }
%struct.List = type { i32, i32, i32, ptr, [0 x %union.ListCell] }
%union.ListCell = type { ptr }
%struct.PlannerParamItem = type { i32, ptr, i32 }
%struct.Node = type { i32 }
%struct.PlannerGlobal = type { i32, ptr, ptr, ptr, ptr, ptr, ptr, ptr, ptr, ptr, ptr, ptr, ptr, ptr, ptr, ptr, ptr, i32, i32, i32, i8, i8, i8, i8, i8, ptr }
%struct.Aggref = type { %struct.Expr, i32, i32, i32, i32, i32, ptr, ptr, ptr, ptr, ptr, ptr, i8, i8, i8, i8, i32, i32, i32, i32, i32 }

; Function Attrs: inlinehint nounwind uwtable
define internal i32 @list_length(ptr noundef %0) #2 {
  %2 = alloca ptr, align 8
  store ptr %0, ptr %2, align 8
  %3 = load ptr, ptr %2, align 8
  %4 = icmp ne ptr %3, null
  br i1 %4, label %5, label %9

5:                                                ; preds = %1
  %6 = load ptr, ptr %2, align 8
  %7 = getelementptr inbounds nuw %struct.List, ptr %6, i32 0, i32 1
  %8 = load i32, ptr %7, align 4
  br label %10

9:                                                ; preds = %1
  br label %10

10:                                               ; preds = %9, %5
  %11 = phi i32 [ %8, %5 ], [ 0, %9 ]
  ret i32 %11
}

; Function Attrs: inlinehint nounwind uwtable
define internal ptr @newNode(i64 noundef %0, i32 noundef %1) #2 {
  %3 = alloca i64, align 8
  %4 = alloca i32, align 4
  %5 = alloca ptr, align 8
  store i64 %0, ptr %3, align 8
  store i32 %1, ptr %4, align 4
  call void @llvm.lifetime.start.p0(i64 8, ptr %5) #6
  %6 = load i64, ptr %3, align 8
  %7 = call ptr @palloc0(i64 noundef %6)
  store ptr %7, ptr %5, align 8
  %8 = load i32, ptr %4, align 4
  %9 = load ptr, ptr %5, align 8
  %10 = getelementptr inbounds nuw %struct.Node, ptr %9, i32 0, i32 0
  store i32 %8, ptr %10, align 4
  %11 = load ptr, ptr %5, align 8
  call void @llvm.lifetime.end.p0(i64 8, ptr %5) #6
  ret ptr %11
}

; Function Attrs: nounwind uwtable
define dso_local ptr @replace_outer_agg(ptr noundef %0, ptr noundef %1) #0 {
  %3 = alloca ptr, align 8
  %4 = alloca ptr, align 8
  %5 = alloca ptr, align 8
  %6 = alloca ptr, align 8
  %7 = alloca i32, align 4
  store ptr %0, ptr %3, align 8
  store ptr %1, ptr %4, align 8
  call void @llvm.lifetime.start.p0(i64 8, ptr %5) #6
  call void @llvm.lifetime.start.p0(i64 8, ptr %6) #6
  call void @llvm.lifetime.start.p0(i64 4, ptr %7) #6
  %8 = load ptr, ptr %4, align 8
  %9 = getelementptr inbounds nuw %struct.Aggref, ptr %8, i32 0, i32 16
  %10 = load i32, ptr %9, align 4
  store i32 %10, ptr %7, align 4
  br label %11

11:                                               ; preds = %18, %2
  %12 = load i32, ptr %7, align 4
  %13 = icmp ugt i32 %12, 0
  br i1 %13, label %14, label %21

14:                                               ; preds = %11
  %15 = load ptr, ptr %3, align 8
  %16 = getelementptr inbounds nuw %struct.PlannerInfo, ptr %15, i32 0, i32 4
  %17 = load ptr, ptr %16, align 8
  store ptr %17, ptr %3, align 8
  br label %18

18:                                               ; preds = %14
  %19 = load i32, ptr %7, align 4
  %20 = add i32 %19, -1
  store i32 %20, ptr %7, align 4
  br label %11, !llvm.loop !9

21:                                               ; preds = %11
  %22 = load ptr, ptr %4, align 8
  %23 = call ptr @copyObjectImpl(ptr noundef %22)
  store ptr %23, ptr %4, align 8
  %24 = load ptr, ptr %4, align 8
  %25 = load ptr, ptr %4, align 8
  %26 = getelementptr inbounds nuw %struct.Aggref, ptr %25, i32 0, i32 16
  %27 = load i32, ptr %26, align 4
  %28 = sub i32 0, %27
  call void @IncrementVarSublevelsUp(ptr noundef %24, i32 noundef %28, i32 noundef 0)
  %29 = call ptr @newNode(i64 noundef 24, i32 noundef 325)
  store ptr %29, ptr %6, align 8
  %30 = load ptr, ptr %4, align 8
  %31 = load ptr, ptr %6, align 8
  %32 = getelementptr inbounds nuw %struct.PlannerParamItem, ptr %31, i32 0, i32 1
  store ptr %30, ptr %32, align 8
  %33 = load ptr, ptr %3, align 8
  %34 = getelementptr inbounds nuw %struct.PlannerInfo, ptr %33, i32 0, i32 2
  %35 = load ptr, ptr %34, align 8
  %36 = getelementptr inbounds nuw %struct.PlannerGlobal, ptr %35, i32 0, i32 16
  %37 = load ptr, ptr %36, align 8
  %38 = call i32 @list_length(ptr noundef %37)
  %39 = load ptr, ptr %6, align 8
  %40 = getelementptr inbounds nuw %struct.PlannerParamItem, ptr %39, i32 0, i32 2
  store i32 %38, ptr %40, align 8
  %41 = load ptr, ptr %3, align 8
  %42 = getelementptr inbounds nuw %struct.PlannerInfo, ptr %41, i32 0, i32 2
  %43 = load ptr, ptr %42, align 8
  %44 = getelementptr inbounds nuw %struct.PlannerGlobal, ptr %43, i32 0, i32 16
  %45 = load ptr, ptr %44, align 8
  %46 = load ptr, ptr %4, align 8
  %47 = getelementptr inbounds nuw %struct.Aggref, ptr %46, i32 0, i32 2
  %48 = load i32, ptr %47, align 8
  %49 = call ptr @lappend_oid(ptr noundef %45, i32 noundef %48)
  %50 = load ptr, ptr %3, align 8
  %51 = getelementptr inbounds nuw %struct.PlannerInfo, ptr %50, i32 0, i32 2
  %52 = load ptr, ptr %51, align 8
  %53 = getelementptr inbounds nuw %struct.PlannerGlobal, ptr %52, i32 0, i32 16
  store ptr %49, ptr %53, align 8
  %54 = load ptr, ptr %3, align 8
  %55 = getelementptr inbounds nuw %struct.PlannerInfo, ptr %54, i32 0, i32 5
  %56 = load ptr, ptr %55, align 8
  %57 = load ptr, ptr %6, align 8
  %58 = call ptr @lappend(ptr noundef %56, ptr noundef %57)
  %59 = load ptr, ptr %3, align 8
  %60 = getelementptr inbounds nuw %struct.PlannerInfo, ptr %59, i32 0, i32 5
  store ptr %58, ptr %60, align 8
  %61 = call ptr @newNode(i64 noundef 28, i32 noundef 8)
  store ptr %61, ptr %5, align 8
  %62 = load ptr, ptr %5, align 8
  %63 = getelementptr inbounds nuw %struct.Param, ptr %62, i32 0, i32 1
  store i32 1, ptr %63, align 4
  %64 = load ptr, ptr %6, align 8
  %65 = getelementptr inbounds nuw %struct.PlannerParamItem, ptr %64, i32 0, i32 2
  %66 = load i32, ptr %65, align 8
  %67 = load ptr, ptr %5, align 8
  %68 = getelementptr inbounds nuw %struct.Param, ptr %67, i32 0, i32 2
  store i32 %66, ptr %68, align 4
  %69 = load ptr, ptr %4, align 8
  %70 = getelementptr inbounds nuw %struct.Aggref, ptr %69, i32 0, i32 2
  %71 = load i32, ptr %70, align 8
  %72 = load ptr, ptr %5, align 8
  %73 = getelementptr inbounds nuw %struct.Param, ptr %72, i32 0, i32 3
  store i32 %71, ptr %73, align 4
  %74 = load ptr, ptr %5, align 8
  %75 = getelementptr inbounds nuw %struct.Param, ptr %74, i32 0, i32 4
  store i32 -1, ptr %75, align 4
  %76 = load ptr, ptr %4, align 8
  %77 = getelementptr inbounds nuw %struct.Aggref, ptr %76, i32 0, i32 3
  %78 = load i32, ptr %77, align 4
  %79 = load ptr, ptr %5, align 8
  %80 = getelementptr inbounds nuw %struct.Param, ptr %79, i32 0, i32 5
  store i32 %78, ptr %80, align 4
  %81 = load ptr, ptr %4, align 8
  %82 = getelementptr inbounds nuw %struct.Aggref, ptr %81, i32 0, i32 20
  %83 = load i32, ptr %82, align 4
  %84 = load ptr, ptr %5, align 8
  %85 = getelementptr inbounds nuw %struct.Param, ptr %84, i32 0, i32 6
  store i32 %83, ptr %85, align 4
  %86 = load ptr, ptr %5, align 8
  call void @llvm.lifetime.end.p0(i64 4, ptr %7) #6
  call void @llvm.lifetime.end.p0(i64 8, ptr %6) #6
  call void @llvm.lifetime.end.p0(i64 8, ptr %5) #6
  ret ptr %86
}