; Function Attrs: nounwind uwtable
define dso_local noundef ptr @replace_outer_agg(ptr noundef captures(none) %0, ptr noundef %1) local_unnamed_addr #0 {
  %3 = getelementptr inbounds nuw i8, ptr %1, i64 76
  %4 = load i32, ptr %3, align 4
  %.not28 = icmp eq i32 %4, 0
  br i1 %.not28, label %._crit_edge, label %.lr.ph

.lr.ph:                                           ; preds = %2, %.lr.ph
  %.030 = phi i32 [ %7, %.lr.ph ], [ %4, %2 ]
  %.02729 = phi ptr [ %6, %.lr.ph ], [ %0, %2 ]
  %5 = getelementptr inbounds nuw i8, ptr %.02729, i64 32
  %6 = load ptr, ptr %5, align 8
  %7 = add i32 %.030, -1
  %.not = icmp eq i32 %7, 0
  br i1 %.not, label %._crit_edge, label %.lr.ph, !llvm.loop !7

._crit_edge:                                      ; preds = %.lr.ph, %2
  %.027.lcssa = phi ptr [ %0, %2 ], [ %6, %.lr.ph ]
  %8 = tail call ptr @copyObjectImpl(ptr noundef %1) #4
  %9 = getelementptr inbounds nuw i8, ptr %8, i64 76
  %10 = load i32, ptr %9, align 4
  %11 = sub i32 0, %10
  tail call void @IncrementVarSublevelsUp(ptr noundef %8, i32 noundef %11, i32 noundef 0) #4
  %12 = tail call noundef ptr @palloc0(i64 noundef 24) #4
  store i32 325, ptr %12, align 4
  %13 = getelementptr inbounds nuw i8, ptr %12, i64 8
  store ptr %8, ptr %13, align 8
  %14 = getelementptr inbounds nuw i8, ptr %.027.lcssa, i64 16
  %15 = load ptr, ptr %14, align 8
  %16 = getelementptr inbounds nuw i8, ptr %15, i64 128
  %17 = load ptr, ptr %16, align 8
  %.not.i = icmp eq ptr %17, null
  br i1 %.not.i, label %list_length.exit, label %18

18:                                               ; preds = %._crit_edge
  %19 = getelementptr inbounds nuw i8, ptr %17, i64 4
  %20 = load i32, ptr %19, align 4
  br label %list_length.exit

list_length.exit:                                 ; preds = %._crit_edge, %18
  %21 = phi i32 [ %20, %18 ], [ 0, %._crit_edge ]
  %22 = getelementptr inbounds nuw i8, ptr %12, i64 16
  store i32 %21, ptr %22, align 8
  %23 = load ptr, ptr %14, align 8
  %24 = getelementptr inbounds nuw i8, ptr %23, i64 128
  %25 = load ptr, ptr %24, align 8
  %26 = getelementptr inbounds nuw i8, ptr %8, i64 8
  %27 = load i32, ptr %26, align 8
  %28 = tail call ptr @lappend_oid(ptr noundef %25, i32 noundef %27) #4
  %29 = load ptr, ptr %14, align 8
  %30 = getelementptr inbounds nuw i8, ptr %29, i64 128
  store ptr %28, ptr %30, align 8
  %31 = getelementptr inbounds nuw i8, ptr %.027.lcssa, i64 40
  %32 = load ptr, ptr %31, align 8
  %33 = tail call ptr @lappend(ptr noundef %32, ptr noundef nonnull %12) #4
  store ptr %33, ptr %31, align 8
  %34 = tail call noundef ptr @palloc0(i64 noundef 28) #4
  store i32 8, ptr %34, align 4
  %35 = getelementptr inbounds nuw i8, ptr %34, i64 4
  store i32 1, ptr %35, align 4
  %36 = load i32, ptr %22, align 8
  %37 = getelementptr inbounds nuw i8, ptr %34, i64 8
  store i32 %36, ptr %37, align 4
  %38 = load i32, ptr %26, align 8
  %39 = getelementptr inbounds nuw i8, ptr %34, i64 12
  store i32 %38, ptr %39, align 4
  %40 = getelementptr inbounds nuw i8, ptr %34, i64 16
  store i32 -1, ptr %40, align 4
  %41 = getelementptr inbounds nuw i8, ptr %8, i64 12
  %42 = load i32, ptr %41, align 4
  %43 = getelementptr inbounds nuw i8, ptr %34, i64 20
  store i32 %42, ptr %43, align 4
  %44 = getelementptr inbounds nuw i8, ptr %8, i64 92
  %45 = load i32, ptr %44, align 4
  %46 = getelementptr inbounds nuw i8, ptr %34, i64 24
  store i32 %45, ptr %46, align 4
  ret ptr %34
}